; Function Attrs: mustprogress uwtable
define hidden void @_ZNK2cv13wechat_qrcode9ImgSource4cropEiiiiRN5zxing12ErrorHandlerE(ptr dead_on_unwind noalias writable writeonly sret(%"class.zxing::Ref.0") align 8 captures(none) %0, ptr noundef nonnull readonly align 8 captures(none) dereferenceable(80) %1, i32 noundef %2, i32 noundef %3, i32 noundef %4, i32 noundef %5, ptr noundef nonnull align 8 dereferenceable(48) %6) unnamed_addr #0 align 2 personality ptr @__gxx_personality_v0 {
  %8 = getelementptr inbounds nuw i8, ptr %1, i64 48
  %9 = load ptr, ptr %8, align 8
  %10 = getelementptr inbounds nuw i8, ptr %1, i64 64
  %11 = load i32, ptr %10, align 8
  %12 = getelementptr inbounds nuw i8, ptr %1, i64 68
  %13 = load i32, ptr %12, align 4
  %14 = getelementptr inbounds nuw i8, ptr %1, i64 72
  %15 = load i32, ptr %14, align 8
  %16 = add nsw i32 %15, %2
  %17 = getelementptr inbounds nuw i8, ptr %1, i64 76
  %18 = load i32, ptr %17, align 4
  %19 = add nsw i32 %18, %3
  %20 = tail call noalias noundef nonnull dereferenceable(80) ptr @_Znwm(i64 noundef 80) #14, !noalias !6
  invoke void @_ZN2cv13wechat_qrcode9ImgSourceC2EPhiiiiiiRN5zxing12ErrorHandlerE(ptr noundef nonnull align 8 dereferenceable(80) %20, ptr noundef %9, i32 noundef %11, i32 noundef %13, i32 noundef %16, i32 noundef %19, i32 noundef %4, i32 noundef %5, ptr noundef nonnull align 8 dereferenceable(48) %6)
          to label %23 unwind label %21, !noalias !6

21:                                               ; preds = %7
  %22 = landingpad { ptr, i32 }
          cleanup
  tail call void @_ZdlPv(ptr noundef nonnull %20) #16, !noalias !6
  resume { ptr, i32 } %22

23:                                               ; preds = %7
  %24 = getelementptr inbounds nuw i8, ptr %20, i64 8
  %25 = load i32, ptr %24, align 8, !noalias !6
  %26 = add i32 %25, 1
  store ptr %20, ptr %0, align 8
  store i32 %26, ptr %24, align 8
  %27 = icmp eq i32 %26, 0
  br i1 %27, label %28, label %_ZN5zxing3RefIN2cv13wechat_qrcode9ImgSourceEED2Ev.exit

28:                                               ; preds = %23
  store i32 -559026175, ptr %24, align 8
  %29 = load ptr, ptr %20, align 8
  %30 = getelementptr inbounds nuw i8, ptr %29, i64 8
  %31 = load ptr, ptr %30, align 8
  tail call void %31(ptr noundef nonnull align 8 dereferenceable(12) %20) #15
  br label %_ZN5zxing3RefIN2cv13wechat_qrcode9ImgSourceEED2Ev.exit

_ZN5zxing3RefIN2cv13wechat_qrcode9ImgSourceEED2Ev.exit: ; preds = %23, %28
  ret void
}